target datalayout = "e-m:e-p270:32:32-p271:32:32-p272:64:64-i64:64-i128:128-f80:128-n8:16:32:64-S128"
target triple = "x86_64-pc-linux-gnu"

%"class.icu_77::UObject" = type { ptr }
%struct.UText = type { i32, i32, i32, i32, i64, i32, i32, i64, i32, i32, ptr, ptr, ptr, ptr, ptr, ptr, ptr, ptr, i64, i32, i32, i64, i32, i32 }
%"class.icu_77::UnicodeString" = type { %"class.icu_77::Replaceable", %"union.icu_77::UnicodeString::StackBufferOrFields" }
%"class.icu_77::Replaceable" = type { %"class.icu_77::UObject" }
%"union.icu_77::UnicodeString::StackBufferOrFields" = type { %struct.anon.0, [32 x i8] }
%struct.anon.0 = type { i16, i32, i32, ptr }

; Function Attrs: mustprogress uwtable
define void @ubrk_setText_77(ptr noundef %0, ptr noundef %1, i32 noundef %2, ptr noundef %3) #0 {
  %5 = alloca ptr, align 8
  %6 = alloca ptr, align 8
  %7 = alloca i32, align 4
  %8 = alloca ptr, align 8
  %9 = alloca %struct.UText, align 8
  store ptr %0, ptr %5, align 8, !tbaa !19
  store ptr %1, ptr %6, align 8, !tbaa !10
  store i32 %2, ptr %7, align 4, !tbaa !12
  store ptr %3, ptr %8, align 8, !tbaa !14
  call void @llvm.lifetime.start.p0(i64 144, ptr %9) #9
  call void @llvm.memset.p0.i64(ptr align 8 %9, i8 0, i64 144, i1 false)
  %10 = getelementptr inbounds %struct.UText, ptr %9, i32 0, i32 0
  store i32 878368812, ptr %10, align 8
  %11 = getelementptr inbounds %struct.UText, ptr %9, i32 0, i32 3
  store i32 144, ptr %11, align 4
  %12 = load ptr, ptr %6, align 8, !tbaa !10
  %13 = load i32, ptr %7, align 4, !tbaa !12
  %14 = sext i32 %13 to i64
  %15 = load ptr, ptr %8, align 8, !tbaa !14
  %16 = call ptr @utext_openUChars_77(ptr noundef %9, ptr noundef %12, i64 noundef %14, ptr noundef %15)
  %17 = load ptr, ptr %5, align 8, !tbaa !19
  %18 = load ptr, ptr %8, align 8, !tbaa !14
  %19 = load ptr, ptr %17, align 8, !tbaa !21
  %20 = getelementptr inbounds ptr, ptr %19, i64 8
  %21 = load ptr, ptr %20, align 8
  call void %21(ptr noundef nonnull align 8 dereferenceable(32) %17, ptr noundef %9, ptr noundef nonnull align 4 dereferenceable(4) %18)
  call void @llvm.lifetime.end.p0(i64 144, ptr %9) #9
  ret void
}

; Function Attrs: inlinehint mustprogress nounwind uwtable
define internal noundef signext i8 @_ZL9U_FAILURE10UErrorCode(i32 noundef %0) #1 {
  %2 = alloca i32, align 4
  store i32 %0, ptr %2, align 4, !tbaa !15
  %3 = load i32, ptr %2, align 4, !tbaa !15
  %4 = icmp sgt i32 %3, 0
  %5 = zext i1 %4 to i8
  ret i8 %5
}

; Function Attrs: mustprogress uwtable
define ptr @ubrk_openRules_77(ptr noundef %0, i32 noundef %1, ptr noundef %2, i32 noundef %3, ptr noundef %4, ptr noundef %5) #0 personality ptr @__gxx_personality_v0 {
  %7 = alloca ptr, align 8
  %8 = alloca ptr, align 8
  %9 = alloca i32, align 4
  %10 = alloca ptr, align 8
  %11 = alloca i32, align 4
  %12 = alloca ptr, align 8
  %13 = alloca ptr, align 8
  %14 = alloca ptr, align 8
  %15 = alloca %"class.icu_77::UnicodeString", align 8
  %16 = alloca ptr, align 8
  %17 = alloca i32, align 4
  %18 = alloca i32, align 4
  %19 = alloca ptr, align 8
  store ptr %0, ptr %8, align 8, !tbaa !10
  store i32 %1, ptr %9, align 4, !tbaa !12
  store ptr %2, ptr %10, align 8, !tbaa !10
  store i32 %3, ptr %11, align 4, !tbaa !12
  store ptr %4, ptr %12, align 8, !tbaa !23
  store ptr %5, ptr %13, align 8, !tbaa !14
  %20 = load ptr, ptr %13, align 8, !tbaa !14
  %21 = icmp eq ptr %20, null
  br i1 %21, label %27, label %22

22:                                               ; preds = %6
  %23 = load ptr, ptr %13, align 8, !tbaa !14
  %24 = load i32, ptr %23, align 4, !tbaa !15
  %25 = call noundef signext i8 @_ZL9U_FAILURE10UErrorCode(i32 noundef %24)
  %26 = icmp ne i8 %25, 0
  br i1 %26, label %27, label %28

27:                                               ; preds = %22, %6
  store ptr null, ptr %7, align 8
  br label %63

28:                                               ; preds = %22
  call void @llvm.lifetime.start.p0(i64 8, ptr %14) #9
  store ptr null, ptr %14, align 8, !tbaa !17
  call void @llvm.lifetime.start.p0(i64 64, ptr %15) #9
  %29 = load ptr, ptr %8, align 8, !tbaa !10
  %30 = load i32, ptr %9, align 4, !tbaa !12
  call void @_ZN6icu_7713UnicodeStringC1EPKDsi(ptr noundef nonnull align 8 dereferenceable(64) %15, ptr noundef %29, i32 noundef %30)
  %31 = load ptr, ptr %12, align 8, !tbaa !23
  %32 = load ptr, ptr %13, align 8, !tbaa !14
  %33 = invoke noundef ptr @_ZN6icu_7715RBBIRuleBuilder28createRuleBasedBreakIteratorERKNS_13UnicodeStringEP11UParseErrorR10UErrorCode(ptr noundef nonnull align 8 dereferenceable(64) %15, ptr noundef %31, ptr noundef nonnull align 4 dereferenceable(4) %32)
          to label %34 unwind label %41

34:                                               ; preds = %28
  store ptr %33, ptr %14, align 8, !tbaa !17
  %35 = load ptr, ptr %13, align 8, !tbaa !14
  %36 = load i32, ptr %35, align 4, !tbaa !15
  %37 = invoke noundef signext i8 @_ZL9U_FAILURE10UErrorCode(i32 noundef %36)
          to label %38 unwind label %41

38:                                               ; preds = %34
  %39 = icmp ne i8 %37, 0
  br i1 %39, label %40, label %45

40:                                               ; preds = %38
  store ptr null, ptr %7, align 8
  store i32 1, ptr %18, align 4
  br label %61

41:                                               ; preds = %34, %28
  %42 = landingpad { ptr, i32 }
          cleanup
  %43 = extractvalue { ptr, i32 } %42, 0
  store ptr %43, ptr %16, align 8
  %44 = extractvalue { ptr, i32 } %42, 1
  store i32 %44, ptr %17, align 4
  br label %62

45:                                               ; preds = %38
  call void @llvm.lifetime.start.p0(i64 8, ptr %19) #9
  %46 = load ptr, ptr %14, align 8, !tbaa !17
  store ptr %46, ptr %19, align 8, !tbaa !19
  %47 = load ptr, ptr %10, align 8, !tbaa !10
  %48 = icmp ne ptr %47, null
  br i1 %48, label %49, label %59

49:                                               ; preds = %45
  %50 = load ptr, ptr %19, align 8, !tbaa !19
  %51 = load ptr, ptr %10, align 8, !tbaa !10
  %52 = load i32, ptr %11, align 4, !tbaa !12
  %53 = load ptr, ptr %13, align 8, !tbaa !14
  invoke void @ubrk_setText_77(ptr noundef %50, ptr noundef %51, i32 noundef %52, ptr noundef %53)
          to label %54 unwind label %55

54:                                               ; preds = %49
  br label %59

55:                                               ; preds = %49
  %56 = landingpad { ptr, i32 }
          cleanup
  %57 = extractvalue { ptr, i32 } %56, 0
  store ptr %57, ptr %16, align 8
  %58 = extractvalue { ptr, i32 } %56, 1
  store i32 %58, ptr %17, align 4
  call void @llvm.lifetime.end.p0(i64 8, ptr %19) #9
  br label %62

59:                                               ; preds = %54, %45
  %60 = load ptr, ptr %19, align 8, !tbaa !19
  store ptr %60, ptr %7, align 8
  store i32 1, ptr %18, align 4
  call void @llvm.lifetime.end.p0(i64 8, ptr %19) #9
  br label %61

61:                                               ; preds = %59, %40
  call void @_ZN6icu_7713UnicodeStringD1Ev(ptr noundef nonnull align 8 dereferenceable(64) %15) #9
  call void @llvm.lifetime.end.p0(i64 64, ptr %15) #9
  call void @llvm.lifetime.end.p0(i64 8, ptr %14) #9
  br label %63

62:                                               ; preds = %55, %41
  call void @_ZN6icu_7713UnicodeStringD1Ev(ptr noundef nonnull align 8 dereferenceable(64) %15) #9
  call void @llvm.lifetime.end.p0(i64 64, ptr %15) #9
  call void @llvm.lifetime.end.p0(i64 8, ptr %14) #9
  br label %65

63:                                               ; preds = %61, %27
  %64 = load ptr, ptr %7, align 8
  ret ptr %64

65:                                               ; preds = %62
  %66 = load ptr, ptr %16, align 8
  %67 = load i32, ptr %17, align 4
  %68 = insertvalue { ptr, i32 } poison, ptr %66, 0
  %69 = insertvalue { ptr, i32 } %68, i32 %67, 1
  resume { ptr, i32 } %69
}