; Function Attrs: mustprogress uwtable
define noundef ptr @ubrk_openRules_77(ptr noundef %0, i32 noundef %1, ptr noundef %2, i32 noundef %3, ptr noundef %4, ptr noundef %5) local_unnamed_addr #0 personality ptr @__gxx_personality_v0 {
  %7 = alloca %struct.UText, align 8
  %8 = alloca %"class.icu_77::UnicodeString", align 8
  %9 = icmp eq ptr %5, null
  br i1 %9, label %32, label %10

10:                                               ; preds = %6
  %11 = load i32, ptr %5, align 4, !tbaa !3
  %12 = icmp slt i32 %11, 1
  br i1 %12, label %13, label %32

13:                                               ; preds = %10
  call void @llvm.lifetime.start.p0(i64 64, ptr nonnull %8) #8
  call void @_ZN6icu_7713UnicodeStringC1EPKDsi(ptr noundef nonnull align 8 dereferenceable(64) %8, ptr noundef %0, i32 noundef %1)
  %14 = invoke noundef ptr @_ZN6icu_7715RBBIRuleBuilder28createRuleBasedBreakIteratorERKNS_13UnicodeStringEP11UParseErrorR10UErrorCode(ptr noundef nonnull align 8 dereferenceable(64) %8, ptr noundef %4, ptr noundef nonnull align 4 dereferenceable(4) %5)
          to label %15 unwind label %18

15:                                               ; preds = %13
  %16 = load i32, ptr %5, align 4, !tbaa !3
  %17 = icmp slt i32 %16, 1
  br i1 %17, label %20, label %30

18:                                               ; preds = %13
  %19 = landingpad { ptr, i32 }
          cleanup
  br label %31

20:                                               ; preds = %15
  %.not21 = icmp eq ptr %2, null
  br i1 %.not21, label %30, label %21

21:                                               ; preds = %20
  call void @llvm.lifetime.start.p0(i64 144, ptr nonnull %7) #8
  call void @llvm.memset.p0.i64(ptr noundef nonnull align 8 dereferenceable(144) %7, i8 0, i64 144, i1 false)
  store i32 878368812, ptr %7, align 8
  %22 = getelementptr inbounds nuw i8, ptr %7, i64 12
  store i32 144, ptr %22, align 4
  %23 = sext i32 %3 to i64
  %24 = invoke ptr @utext_openUChars_77(ptr noundef nonnull %7, ptr noundef nonnull %2, i64 noundef %23, ptr noundef nonnull %5)
          to label %.noexc unwind label %28

.noexc:                                           ; preds = %21
  %25 = load ptr, ptr %14, align 8, !tbaa !7
  %26 = getelementptr inbounds nuw i8, ptr %25, i64 64
  %27 = load ptr, ptr %26, align 8
  invoke void %27(ptr noundef nonnull align 8 dereferenceable(32) %14, ptr noundef nonnull %7, ptr noundef nonnull align 4 dereferenceable(4) %5)
          to label %ubrk_setText_77.exit unwind label %28

ubrk_setText_77.exit:                             ; preds = %.noexc
  call void @llvm.lifetime.end.p0(i64 144, ptr nonnull %7) #8
  br label %30

28:                                               ; preds = %.noexc, %21
  %29 = landingpad { ptr, i32 }
          cleanup
  br label %31

30:                                               ; preds = %ubrk_setText_77.exit, %20, %15
  %.1 = phi ptr [ null, %15 ], [ %14, %ubrk_setText_77.exit ], [ %14, %20 ]
  call void @_ZN6icu_7713UnicodeStringD1Ev(ptr noundef nonnull align 8 dereferenceable(64) %8) #8
  call void @llvm.lifetime.end.p0(i64 64, ptr nonnull %8) #8
  br label %32

31:                                               ; preds = %28, %18
  %.pn = phi { ptr, i32 } [ %29, %28 ], [ %19, %18 ]
  call void @_ZN6icu_7713UnicodeStringD1Ev(ptr noundef nonnull align 8 dereferenceable(64) %8) #8
  call void @llvm.lifetime.end.p0(i64 64, ptr nonnull %8) #8
  resume { ptr, i32 } %.pn

32:                                               ; preds = %6, %10, %30
  %.0 = phi ptr [ %.1, %30 ], [ null, %10 ], [ null, %6 ]
  ret ptr %.0
}